target datalayout = "e-m:e-p270:32:32-p271:32:32-p272:64:64-i64:64-i128:128-f80:128-n8:16:32:64-S128"
target triple = "x86_64-pc-linux-gnu"

; Function Attrs: mustprogress nounwind uwtable
define linkonce_odr hidden noundef ptr @_ZN7JVMFlag9find_flagEPKc(ptr noundef %0) #1 comdat align 2 {
  %2 = alloca ptr, align 8
  store ptr %0, ptr %2, align 8
  %3 = load ptr, ptr %2, align 8
  %4 = load ptr, ptr %2, align 8
  %5 = call i64 @strlen(ptr noundef %4) #12
  %6 = call noundef ptr @_ZN7JVMFlag9find_flagEPKcmbb(ptr noundef %3, i64 noundef %5, i1 noundef zeroext false, i1 noundef zeroext false)
  ret ptr %6
}

; Function Attrs: mustprogress nounwind uwtable
define hidden noundef ptr @_ZN9Arguments13find_jvm_flagEPKcm(ptr noundef %0, i64 noundef %1) #1 align 2 {
  %3 = alloca ptr, align 8
  %4 = alloca ptr, align 8
  %5 = alloca i64, align 8
  %6 = alloca [256 x i8], align 16
  %7 = alloca ptr, align 8
  %8 = alloca ptr, align 8
  store ptr %0, ptr %4, align 8
  store i64 %1, ptr %5, align 8
  %9 = load ptr, ptr %4, align 8
  %10 = load i64, ptr %5, align 8
  %11 = getelementptr inbounds i8, ptr %9, i64 %10
  %12 = load i8, ptr %11, align 1
  %13 = sext i8 %12 to i32
  %14 = icmp ne i32 %13, 0
  br i1 %14, label %15, label %28

15:                                               ; preds = %2
  %16 = load i64, ptr %5, align 8
  %17 = icmp ugt i64 %16, 255
  br i1 %17, label %18, label %19

18:                                               ; preds = %15
  store ptr null, ptr %3, align 8
  br label %38

19:                                               ; preds = %15
  %20 = getelementptr inbounds [256 x i8], ptr %6, i64 0, i64 0
  %21 = load ptr, ptr %4, align 8
  %22 = load i64, ptr %5, align 8
  %23 = call ptr @strncpy(ptr noundef %20, ptr noundef %21, i64 noundef %22) #13
  %24 = load i64, ptr %5, align 8
  %25 = getelementptr inbounds [256 x i8], ptr %6, i64 0, i64 %24
  store i8 0, ptr %25, align 1
  %26 = getelementptr inbounds [256 x i8], ptr %6, i64 0, i64 0
  store ptr %26, ptr %4, align 8
  br label %27

27:                                               ; preds = %19
  br label %28

28:                                               ; preds = %27, %2
  %29 = load ptr, ptr %4, align 8
  %30 = call noundef ptr @_ZN9Arguments30handle_aliases_and_deprecationEPKc(ptr noundef %29)
  store ptr %30, ptr %7, align 8
  %31 = load ptr, ptr %7, align 8
  %32 = icmp eq ptr %31, null
  br i1 %32, label %33, label %34

33:                                               ; preds = %28
  store ptr null, ptr %3, align 8
  br label %38

34:                                               ; preds = %28
  %35 = load ptr, ptr %7, align 8
  %36 = call noundef ptr @_ZN7JVMFlag9find_flagEPKc(ptr noundef %35)
  store ptr %36, ptr %8, align 8
  %37 = load ptr, ptr %8, align 8
  store ptr %37, ptr %3, align 8
  br label %38

38:                                               ; preds = %34, %33, %18
  %39 = load ptr, ptr %3, align 8
  ret ptr %39
}