; Function Attrs: mustprogress nounwind uwtable
define hidden noundef ptr @_ZN9Arguments13find_jvm_flagEPKcm(ptr noundef %0, i64 noundef %1) local_unnamed_addr #0 align 2 {
  %3 = alloca [256 x i8], align 16
  %4 = getelementptr inbounds i8, ptr %0, i64 %1
  %5 = load i8, ptr %4, align 1
  %.not = icmp eq i8 %5, 0
  br i1 %.not, label %11, label %6

6:                                                ; preds = %2
  %7 = icmp ugt i64 %1, 255
  br i1 %7, label %17, label %8

8:                                                ; preds = %6
  %9 = call ptr @strncpy(ptr noundef nonnull %3, ptr noundef nonnull %0, i64 noundef %1) #31
  %10 = getelementptr inbounds [256 x i8], ptr %3, i64 0, i64 %1
  store i8 0, ptr %10, align 1
  br label %11

11:                                               ; preds = %8, %2
  %.010 = phi ptr [ %3, %8 ], [ %0, %2 ]
  %12 = call noundef ptr @_ZN9Arguments30handle_aliases_and_deprecationEPKc(ptr noundef nonnull %.010)
  %13 = icmp eq ptr %12, null
  br i1 %13, label %17, label %14

14:                                               ; preds = %11
  %15 = call i64 @strlen(ptr noundef nonnull dereferenceable(1) %12) #30
  %16 = call noundef ptr @_ZN7JVMFlag9find_flagEPKcmbb(ptr noundef nonnull %12, i64 noundef %15, i1 noundef zeroext false, i1 noundef zeroext false) #31
  br label %17

17:                                               ; preds = %11, %6, %14
  %.0 = phi ptr [ %16, %14 ], [ null, %6 ], [ null, %11 ]
  ret ptr %.0
}